(dp0
S'spatial_size'
p1
(I8
I8
tp2
sS'color_space'
p3
S'YCrCb'
p4
sS'pix_per_cell'
p5
I8
sS'cell_per_block'
p6
I2
sS'HoG'
p7
S'ALL'
p8
sS'hist_bins'
p9
I16
sS'orient'
p10
I9
sS'method'
p11
S'alternative'
p12
s.