(dp0
S'spatial_size'
p1
(I32
I32
tp2
sS'color_space'
p3
S'YCrCb'
p4
sS'pix_per_cell'
p5
I16
sS'cell_per_block'
p6
I2
sS'HoG'
p7
I0
sS'hist_bins'
p8
I32
sS'orient'
p9
I9
sS'method'
p10
S'classic'
p11
s.